; Function Attrs: mustprogress nounwind uwtable
define internal fastcc void @_ZN12_GLOBAL__N_122TGlslangToSpvTraverser24declareUseOfStructMemberERKN7glslang7TVectorINS1_8TTypeLocEEEi(ptr noundef nonnull align 8 dereferenceable(3528) %0, ptr readonly captures(none) %.8.val, i32 noundef %1) unnamed_addr #3 align 2 {
  %3 = sext i32 %1 to i64
  %4 = getelementptr inbounds %"struct.glslang::TTypeLoc", ptr %.8.val, i64 %3
  %5 = load ptr, ptr %4, align 8
  %6 = load ptr, ptr %5, align 8
  %7 = getelementptr inbounds nuw i8, ptr %6, i64 80
  %8 = load ptr, ptr %7, align 8
  %9 = tail call noundef nonnull align 8 dereferenceable(80) ptr %8(ptr noundef nonnull align 8 dereferenceable(152) %5) #20
  %10 = getelementptr inbounds nuw i8, ptr %9, i64 8
  %11 = load i64, ptr %10, align 8
  %12 = trunc i64 %11 to i32
  %13 = lshr i32 %12, 7
  %14 = and i32 %13, 511
  switch i32 %14, label %17 [
    i32 31, label %15
    i32 33, label %15
    i32 34, label %15
    i32 88, label %15
    i32 89, label %15
    i32 90, label %15
    i32 91, label %15
    i32 92, label %15
    i32 118, label %15
    i32 119, label %15
    i32 120, label %15
    i32 121, label %15
    i32 122, label %15
    i32 123, label %15
    i32 124, label %15
    i32 125, label %15
  ]

15:                                               ; preds = %2, %2, %2, %2, %2, %2, %2, %2, %2, %2, %2, %2, %2, %2, %2, %2
  %16 = tail call fastcc noundef i32 @_ZN12_GLOBAL__N_122TGlslangToSpvTraverser26TranslateBuiltInDecorationEN7glslang16TBuiltInVariableEb(ptr noundef nonnull align 8 dereferenceable(3528) %0, i32 noundef %14, i1 noundef zeroext false)
  br label %17

17:                                               ; preds = %2, %15
  ret void
}